; Function Attrs: nounwind sspstrong uwtable
define internal void @block_job_event_pending_locked(ptr readnone captures(none) %0, ptr noundef %1) #0 {
  %3 = load ptr, ptr %1, align 8
  %4 = icmp eq ptr %3, null
  br i1 %4, label %8, label %5

5:                                                ; preds = %2
  %6 = tail call i32 @job_type(ptr noundef nonnull %1) #8
  %7 = load ptr, ptr %1, align 8
  tail call void @qapi_event_send_block_job_pending(i32 noundef %6, ptr noundef %7) #8
  br label %8

8:                                                ; preds = %2, %5
  ret void
}